target datalayout = "e-m:e-p270:32:32-p271:32:32-p272:64:64-i64:64-i128:128-f80:128-n8:16:32:64-S128"
target triple = "x86_64-pc-linux-gnu"

%struct.dt_develop_blend_params_t = type { i32, i32, i32, float, float, i32, i32, i32, float, i32, float, float, float, float, i32, [2 x i32], [64 x float], [16 x float], [20 x i8], i32, i32, i32 }
%struct.dt_dev_histogram_stats_t = type { i32, i64, i32, i32 }
%struct.dt_dev_pixelpipe_iop_t = type { ptr, ptr, ptr, ptr, i32, i32, %struct.dt_dev_histogram_collection_params_t, ptr, %struct.dt_dev_histogram_stats_t, [4 x i32], float, i32, i32, i64, i32, i32, %struct.dt_iop_roi_t, %struct.dt_iop_roi_t, %struct.dt_iop_roi_t, %struct.dt_iop_roi_t, i32, i32, %struct.dt_iop_buffer_dsc_t, %struct.dt_iop_buffer_dsc_t, ptr, [8 x i8] }
%struct.dt_dev_histogram_collection_params_t = type { ptr, i32 }
%struct.dt_iop_roi_t = type { i32, i32, i32, i32, float }
%struct.dt_iop_buffer_dsc_t = type { i32, i32, i32, [6 x [6 x i8]], %struct.anon, [12 x i8], %struct.anon.0, [4 x float], i32, [12 x i8] }
%struct.anon = type { i16, i16 }
%struct.anon.0 = type { i32, [12 x i8], [4 x float] }

; Function Attrs: nounwind uwtable
define i32 @dt_develop_blend_colorspace(ptr noundef %0, i32 noundef %1) #0 {
  %3 = alloca i32, align 4
  %4 = alloca ptr, align 8
  %5 = alloca i32, align 4
  %6 = alloca ptr, align 8
  %7 = alloca i32, align 4
  store ptr %0, ptr %4, align 8, !tbaa !38
  store i32 %1, ptr %5, align 4, !tbaa !11
  call void @llvm.lifetime.start.p0(i64 8, ptr %6) #10
  %8 = load ptr, ptr %4, align 8, !tbaa !38
  %9 = getelementptr inbounds nuw %struct.dt_dev_pixelpipe_iop_t, ptr %8, i32 0, i32 3
  %10 = load ptr, ptr %9, align 8, !tbaa !40
  store ptr %10, ptr %6, align 8, !tbaa !30
  %11 = load ptr, ptr %6, align 8, !tbaa !30
  %12 = icmp ne ptr %11, null
  br i1 %12, label %15, label %13

13:                                               ; preds = %2
  %14 = load i32, ptr %5, align 4, !tbaa !11
  store i32 %14, ptr %3, align 4
  store i32 1, ptr %7, align 4
  br label %24

15:                                               ; preds = %2
  %16 = load ptr, ptr %6, align 8, !tbaa !30
  %17 = getelementptr inbounds nuw %struct.dt_develop_blend_params_t, ptr %16, i32 0, i32 1
  %18 = load i32, ptr %17, align 4, !tbaa !31
  switch i32 %18, label %22 [
    i32 1, label %19
    i32 2, label %20
    i32 3, label %21
    i32 4, label %21
  ]

19:                                               ; preds = %15
  store i32 0, ptr %3, align 4
  store i32 1, ptr %7, align 4
  br label %24

20:                                               ; preds = %15
  store i32 1, ptr %3, align 4
  store i32 1, ptr %7, align 4
  br label %24

21:                                               ; preds = %15, %15
  store i32 2, ptr %3, align 4
  store i32 1, ptr %7, align 4
  br label %24

22:                                               ; preds = %15
  %23 = load i32, ptr %5, align 4, !tbaa !11
  store i32 %23, ptr %3, align 4
  store i32 1, ptr %7, align 4
  br label %24

24:                                               ; preds = %22, %21, %20, %19, %13
  call void @llvm.lifetime.end.p0(i64 8, ptr %6) #10
  %25 = load i32, ptr %3, align 4
  ret i32 %25
}