; Function Attrs: mustprogress nofree norecurse nosync nounwind willreturn memory(read, inaccessiblemem: none) uwtable
define noundef i32 @dt_develop_blend_colorspace(ptr noundef readonly captures(none) %0, i32 noundef %1) local_unnamed_addr #5 {
  %3 = getelementptr inbounds nuw i8, ptr %0, i64 24
  %4 = load ptr, ptr %3, align 8, !tbaa !35
  %.not = icmp eq ptr %4, null
  br i1 %.not, label %10, label %5

5:                                                ; preds = %2
  %6 = getelementptr inbounds nuw i8, ptr %4, i64 4
  %7 = load i32, ptr %6, align 4, !tbaa !28
  %switch.tableidx = add i32 %7, -1
  %8 = icmp ult i32 %switch.tableidx, 4
  br i1 %8, label %switch.lookup, label %10

switch.lookup:                                    ; preds = %5
  %9 = zext nneg i32 %switch.tableidx to i64
  %switch.gep = getelementptr inbounds nuw [4 x i32], ptr @switch.table.dt_develop_blend_process, i64 0, i64 %9
  %switch.load = load i32, ptr %switch.gep, align 4
  br label %10

10:                                               ; preds = %5, %switch.lookup, %2
  %.0 = phi i32 [ %1, %2 ], [ %switch.load, %switch.lookup ], [ %1, %5 ]
  ret i32 %.0
}